; Function Attrs: mustprogress nofree norecurse nosync nounwind willreturn memory(read, argmem: readwrite, inaccessiblemem: none) uwtable
define void @ff_get_2pass_fcode(ptr noundef captures(none) initializes((6304, 6312)) %0) local_unnamed_addr #9 {
  %2 = getelementptr inbounds nuw i8, ptr %0, i64 7600
  %3 = load ptr, ptr %2, align 8, !tbaa !107
  %4 = getelementptr inbounds nuw i8, ptr %0, i64 536
  %5 = load i32, ptr %4, align 8, !tbaa !174
  %6 = sext i32 %5 to i64
  %7 = getelementptr inbounds %struct.RateControlEntry, ptr %3, i64 %6
  %8 = getelementptr inbounds nuw i8, ptr %7, i64 12
  %9 = load i32, ptr %8, align 4, !tbaa !154
  %10 = getelementptr inbounds nuw i8, ptr %0, i64 6304
  store i32 %9, ptr %10, align 8, !tbaa !74
  %11 = getelementptr inbounds nuw i8, ptr %7, i64 16
  %12 = load i32, ptr %11, align 8, !tbaa !155
  %13 = getelementptr inbounds nuw i8, ptr %0, i64 6308
  store i32 %12, ptr %13, align 4, !tbaa !75
  ret void
}